target datalayout = "e-m:e-p270:32:32-p271:32:32-p272:64:64-i64:64-i128:128-f80:128-n8:16:32:64-S128"
target triple = "x86_64-pc-linux-gnu"

%struct.mbedtls_ssl_context = type { ptr, i32, i32, i32, i32, i32, ptr, ptr, ptr, ptr, ptr, ptr, ptr, ptr, ptr, ptr, ptr, ptr, ptr, ptr, ptr, ptr, ptr, ptr, ptr, ptr, ptr, ptr, ptr, ptr, ptr, ptr, ptr, i32, i64, i64, i16, i64, i64, i64, i64, i32, i32, i8, i8, i32, i8, ptr, ptr, ptr, ptr, ptr, ptr, ptr, i32, i64, i64, [8 x i8], i16, ptr, ptr, ptr, i64, i32, i64, [12 x i8], [12 x i8], [32 x i8], i8, i8, ptr, ptr, %union.mbedtls_ssl_user_data_t }
%union.mbedtls_ssl_user_data_t = type { i64 }
%struct.mbedtls_ssl_config = type { i32, i32, i8, i8, i8, i8, i8, i8, i8, i8, i8, i8, i16, i8, i8, i8, ptr, i32, ptr, ptr, ptr, ptr, ptr, ptr, ptr, ptr, ptr, ptr, ptr, ptr, ptr, ptr, ptr, ptr, ptr, ptr, ptr, i64, ptr, ptr, ptr, ptr, ptr, ptr, ptr, ptr, %struct.mbedtls_mpi, %struct.mbedtls_mpi, ptr, i64, ptr, i64, ptr, i32, i32, i32, i32, [8 x i8], i32, i32, %union.mbedtls_ssl_user_data_t, ptr, ptr }
%struct.mbedtls_mpi = type { ptr, i16, i16 }

@.str = private unnamed_addr constant [130 x i8] c"generated/home/dtcxzyw/WorkSpace/Projects/compilers/llvm-opt-benchmark/bench/lief/bench_build/mbed_src/library/ssl_tls12_server.c\00", align 1
@.str.148 = private unnamed_addr constant [32 x i8] c"bad client key exchange message\00", align 1
@.str.162 = private unnamed_addr constant [22 x i8] c"got no pre-shared key\00", align 1
@.str.163 = private unnamed_addr constant [21 x i8] c"Unknown PSK identity\00", align 1

; Function Attrs: alwaysinline nounwind uwtable
define internal zeroext i16 @mbedtls_get_unaligned_uint16(ptr noundef %0) #7 {
  %2 = alloca ptr, align 8
  %3 = alloca i16, align 2
  store ptr %0, ptr %2, align 8, !tbaa !35
  call void @llvm.lifetime.start.p0(i64 2, ptr %3) #10
  %4 = load ptr, ptr %2, align 8, !tbaa !35
  call void @llvm.memcpy.p0.p0.i64(ptr align 2 %3, ptr align 1 %4, i64 2, i1 false)
  %5 = load i16, ptr %3, align 2, !tbaa !106
  call void @llvm.lifetime.end.p0(i64 2, ptr %3) #10
  ret i16 %5
}

; Function Attrs: nounwind uwtable
define internal i32 @ssl_conf_has_psk_or_cb(ptr noundef %0) #0 {
  %2 = alloca i32, align 4
  %3 = alloca ptr, align 8
  store ptr %0, ptr %3, align 8, !tbaa !34
  %4 = load ptr, ptr %3, align 8, !tbaa !34
  %5 = getelementptr inbounds nuw %struct.mbedtls_ssl_config, ptr %4, i32 0, i32 29
  %6 = load ptr, ptr %5, align 8, !tbaa !156
  %7 = icmp ne ptr %6, null
  br i1 %7, label %8, label %9

8:                                                ; preds = %1
  store i32 1, ptr %2, align 4
  br label %32

9:                                                ; preds = %1
  %10 = load ptr, ptr %3, align 8, !tbaa !34
  %11 = getelementptr inbounds nuw %struct.mbedtls_ssl_config, ptr %10, i32 0, i32 51
  %12 = load i64, ptr %11, align 8, !tbaa !157
  %13 = icmp eq i64 %12, 0
  br i1 %13, label %19, label %14

14:                                               ; preds = %9
  %15 = load ptr, ptr %3, align 8, !tbaa !34
  %16 = getelementptr inbounds nuw %struct.mbedtls_ssl_config, ptr %15, i32 0, i32 50
  %17 = load ptr, ptr %16, align 8, !tbaa !158
  %18 = icmp eq ptr %17, null
  br i1 %18, label %19, label %20

19:                                               ; preds = %14, %9
  store i32 0, ptr %2, align 4
  br label %32

20:                                               ; preds = %14
  %21 = load ptr, ptr %3, align 8, !tbaa !34
  %22 = getelementptr inbounds nuw %struct.mbedtls_ssl_config, ptr %21, i32 0, i32 48
  %23 = load ptr, ptr %22, align 8, !tbaa !159
  %24 = icmp ne ptr %23, null
  br i1 %24, label %25, label %31

25:                                               ; preds = %20
  %26 = load ptr, ptr %3, align 8, !tbaa !34
  %27 = getelementptr inbounds nuw %struct.mbedtls_ssl_config, ptr %26, i32 0, i32 49
  %28 = load i64, ptr %27, align 8, !tbaa !160
  %29 = icmp ne i64 %28, 0
  br i1 %29, label %30, label %31

30:                                               ; preds = %25
  store i32 1, ptr %2, align 4
  br label %32

31:                                               ; preds = %25, %20
  store i32 0, ptr %2, align 4
  br label %32

32:                                               ; preds = %31, %30, %19, %8
  %33 = load i32, ptr %2, align 4
  ret i32 %33
}

; Function Attrs: nounwind uwtable
define internal i32 @ssl_parse_client_psk_identity(ptr noundef %0, ptr noundef %1, ptr noundef %2) #0 {
  %4 = alloca i32, align 4
  %5 = alloca ptr, align 8
  %6 = alloca ptr, align 8
  %7 = alloca ptr, align 8
  %8 = alloca i32, align 4
  %9 = alloca i16, align 2
  %10 = alloca i32, align 4
  store ptr %0, ptr %5, align 8, !tbaa !3
  store ptr %1, ptr %6, align 8, !tbaa !195
  store ptr %2, ptr %7, align 8, !tbaa !8
  call void @llvm.lifetime.start.p0(i64 4, ptr %8) #10
  store i32 0, ptr %8, align 4, !tbaa !39
  call void @llvm.lifetime.start.p0(i64 2, ptr %9) #10
  %11 = load ptr, ptr %5, align 8, !tbaa !3
  %12 = getelementptr inbounds nuw %struct.mbedtls_ssl_context, ptr %11, i32 0, i32 0
  %13 = load ptr, ptr %12, align 8, !tbaa !12
  %14 = call i32 @ssl_conf_has_psk_or_cb(ptr noundef %13)
  %15 = icmp eq i32 %14, 0
  br i1 %15, label %16, label %18

16:                                               ; preds = %3
  %17 = load ptr, ptr %5, align 8, !tbaa !3
  call void (ptr, i32, ptr, i32, ptr, ...) @mbedtls_debug_print_msg(ptr noundef %17, i32 noundef 1, ptr noundef @.str, i32 noundef 3617, ptr noundef @.str.162)
  store i32 -30208, ptr %4, align 4
  store i32 1, ptr %10, align 4
  br label %122

18:                                               ; preds = %3
  %19 = load ptr, ptr %7, align 8, !tbaa !8
  %20 = load ptr, ptr %6, align 8, !tbaa !195
  %21 = load ptr, ptr %20, align 8, !tbaa !8
  %22 = ptrtoint ptr %19 to i64
  %23 = ptrtoint ptr %21 to i64
  %24 = sub i64 %22, %23
  %25 = icmp slt i64 %24, 2
  br i1 %25, label %26, label %28

26:                                               ; preds = %18
  %27 = load ptr, ptr %5, align 8, !tbaa !3
  call void (ptr, i32, ptr, i32, ptr, ...) @mbedtls_debug_print_msg(ptr noundef %27, i32 noundef 1, ptr noundef @.str, i32 noundef 3625, ptr noundef @.str.148)
  store i32 -29440, ptr %4, align 4
  store i32 1, ptr %10, align 4
  br label %122

28:                                               ; preds = %18
  %29 = load ptr, ptr %6, align 8, !tbaa !195
  %30 = load ptr, ptr %29, align 8, !tbaa !8
  %31 = getelementptr inbounds i8, ptr %30, i64 0
  %32 = call zeroext i16 @mbedtls_get_unaligned_uint16(ptr noundef %31)
  %33 = call i16 @llvm.bswap.i16(i16 %32)
  %34 = zext i16 %33 to i32
  %35 = trunc i32 %34 to i16
  store i16 %35, ptr %9, align 2, !tbaa !106
  %36 = load ptr, ptr %6, align 8, !tbaa !195
  %37 = load ptr, ptr %36, align 8, !tbaa !8
  %38 = getelementptr inbounds i8, ptr %37, i64 2
  store ptr %38, ptr %36, align 8, !tbaa !8
  %39 = load i16, ptr %9, align 2, !tbaa !106
  %40 = zext i16 %39 to i32
  %41 = icmp eq i32 %40, 0
  br i1 %41, label %52, label %42

42:                                               ; preds = %28
  %43 = load i16, ptr %9, align 2, !tbaa !106
  %44 = zext i16 %43 to i64
  %45 = load ptr, ptr %7, align 8, !tbaa !8
  %46 = load ptr, ptr %6, align 8, !tbaa !195
  %47 = load ptr, ptr %46, align 8, !tbaa !8
  %48 = ptrtoint ptr %45 to i64
  %49 = ptrtoint ptr %47 to i64
  %50 = sub i64 %48, %49
  %51 = icmp sgt i64 %44, %50
  br i1 %51, label %52, label %54

52:                                               ; preds = %42, %28
  %53 = load ptr, ptr %5, align 8, !tbaa !3
  call void (ptr, i32, ptr, i32, ptr, ...) @mbedtls_debug_print_msg(ptr noundef %53, i32 noundef 1, ptr noundef @.str, i32 noundef 3633, ptr noundef @.str.148)
  store i32 -29440, ptr %4, align 4
  store i32 1, ptr %10, align 4
  br label %122

54:                                               ; preds = %42
  %55 = load ptr, ptr %5, align 8, !tbaa !3
  %56 = getelementptr inbounds nuw %struct.mbedtls_ssl_context, ptr %55, i32 0, i32 0
  %57 = load ptr, ptr %56, align 8, !tbaa !12
  %58 = getelementptr inbounds nuw %struct.mbedtls_ssl_config, ptr %57, i32 0, i32 29
  %59 = load ptr, ptr %58, align 8, !tbaa !156
  %60 = icmp ne ptr %59, null
  br i1 %60, label %61, label %81

61:                                               ; preds = %54
  %62 = load ptr, ptr %5, align 8, !tbaa !3
  %63 = getelementptr inbounds nuw %struct.mbedtls_ssl_context, ptr %62, i32 0, i32 0
  %64 = load ptr, ptr %63, align 8, !tbaa !12
  %65 = getelementptr inbounds nuw %struct.mbedtls_ssl_config, ptr %64, i32 0, i32 29
  %66 = load ptr, ptr %65, align 8, !tbaa !156
  %67 = load ptr, ptr %5, align 8, !tbaa !3
  %68 = getelementptr inbounds nuw %struct.mbedtls_ssl_context, ptr %67, i32 0, i32 0
  %69 = load ptr, ptr %68, align 8, !tbaa !12
  %70 = getelementptr inbounds nuw %struct.mbedtls_ssl_config, ptr %69, i32 0, i32 30
  %71 = load ptr, ptr %70, align 8, !tbaa !196
  %72 = load ptr, ptr %5, align 8, !tbaa !3
  %73 = load ptr, ptr %6, align 8, !tbaa !195
  %74 = load ptr, ptr %73, align 8, !tbaa !8
  %75 = load i16, ptr %9, align 2, !tbaa !106
  %76 = zext i16 %75 to i64
  %77 = call i32 %66(ptr noundef %71, ptr noundef %72, ptr noundef %74, i64 noundef %76)
  %78 = icmp ne i32 %77, 0
  br i1 %78, label %79, label %80

79:                                               ; preds = %61
  store i32 -27776, ptr %8, align 4, !tbaa !39
  br label %80

80:                                               ; preds = %79, %61
  br label %104

81:                                               ; preds = %54
  %82 = load i16, ptr %9, align 2, !tbaa !106
  %83 = zext i16 %82 to i64
  %84 = load ptr, ptr %5, align 8, !tbaa !3
  %85 = getelementptr inbounds nuw %struct.mbedtls_ssl_context, ptr %84, i32 0, i32 0
  %86 = load ptr, ptr %85, align 8, !tbaa !12
  %87 = getelementptr inbounds nuw %struct.mbedtls_ssl_config, ptr %86, i32 0, i32 51
  %88 = load i64, ptr %87, align 8, !tbaa !157
  %89 = icmp ne i64 %83, %88
  br i1 %89, label %102, label %90

90:                                               ; preds = %81
  %91 = load ptr, ptr %5, align 8, !tbaa !3
  %92 = getelementptr inbounds nuw %struct.mbedtls_ssl_context, ptr %91, i32 0, i32 0
  %93 = load ptr, ptr %92, align 8, !tbaa !12
  %94 = getelementptr inbounds nuw %struct.mbedtls_ssl_config, ptr %93, i32 0, i32 50
  %95 = load ptr, ptr %94, align 8, !tbaa !158
  %96 = load ptr, ptr %6, align 8, !tbaa !195
  %97 = load ptr, ptr %96, align 8, !tbaa !8
  %98 = load i16, ptr %9, align 2, !tbaa !106
  %99 = zext i16 %98 to i64
  %100 = call i32 @mbedtls_ct_memcmp(ptr noundef %95, ptr noundef %97, i64 noundef %99)
  %101 = icmp ne i32 %100, 0
  br i1 %101, label %102, label %103

102:                                              ; preds = %90, %81
  store i32 -27776, ptr %8, align 4, !tbaa !39
  br label %103

103:                                              ; preds = %102, %90
  br label %104

104:                                              ; preds = %103, %80
  %105 = load i32, ptr %8, align 4, !tbaa !39
  %106 = icmp eq i32 %105, -27776
  br i1 %106, label %107, label %115

107:                                              ; preds = %104
  %108 = load ptr, ptr %5, align 8, !tbaa !3
  %109 = load ptr, ptr %6, align 8, !tbaa !195
  %110 = load ptr, ptr %109, align 8, !tbaa !8
  %111 = load i16, ptr %9, align 2, !tbaa !106
  %112 = zext i16 %111 to i64
  call void @mbedtls_debug_print_buf(ptr noundef %108, i32 noundef 3, ptr noundef @.str, i32 noundef 3651, ptr noundef @.str.163, ptr noundef %110, i64 noundef %112)
  %113 = load ptr, ptr %5, align 8, !tbaa !3
  %114 = call i32 @mbedtls_ssl_send_alert_message(ptr noundef %113, i8 noundef zeroext 2, i8 noundef zeroext 115)
  store i32 -27776, ptr %4, align 4
  store i32 1, ptr %10, align 4
  br label %122

115:                                              ; preds = %104
  %116 = load i16, ptr %9, align 2, !tbaa !106
  %117 = zext i16 %116 to i32
  %118 = load ptr, ptr %6, align 8, !tbaa !195
  %119 = load ptr, ptr %118, align 8, !tbaa !8
  %120 = sext i32 %117 to i64
  %121 = getelementptr inbounds i8, ptr %119, i64 %120
  store ptr %121, ptr %118, align 8, !tbaa !8
  store i32 0, ptr %4, align 4
  store i32 1, ptr %10, align 4
  br label %122

122:                                              ; preds = %115, %107, %52, %26, %16
  call void @llvm.lifetime.end.p0(i64 2, ptr %9) #10
  call void @llvm.lifetime.end.p0(i64 4, ptr %8) #10
  %123 = load i32, ptr %4, align 4
  ret i32 %123
}