; Function Attrs: nounwind uwtable
define internal fastcc range(i32 -30208, 1) i32 @ssl_parse_client_psk_identity(ptr noundef %0, ptr noundef nonnull captures(none) %1, ptr noundef %2) unnamed_addr #5 {
  %4 = load ptr, ptr %0, align 8, !tbaa !3
  %5 = getelementptr inbounds nuw i8, ptr %4, i64 128
  %6 = load ptr, ptr %5, align 8, !tbaa !167
  %.not.i = icmp eq ptr %6, null
  br i1 %.not.i, label %7, label %ssl_conf_has_psk_or_cb.exit

7:                                                ; preds = %3
  %8 = getelementptr inbounds nuw i8, ptr %4, i64 320
  %9 = load i64, ptr %8, align 8, !tbaa !168
  %10 = icmp eq i64 %9, 0
  br i1 %10, label %21, label %11

11:                                               ; preds = %7
  %12 = getelementptr inbounds nuw i8, ptr %4, i64 312
  %13 = load ptr, ptr %12, align 8, !tbaa !169
  %14 = icmp eq ptr %13, null
  br i1 %14, label %21, label %15

15:                                               ; preds = %11
  %16 = getelementptr inbounds nuw i8, ptr %4, i64 296
  %17 = load ptr, ptr %16, align 8, !tbaa !170
  %.not5.i = icmp eq ptr %17, null
  br i1 %.not5.i, label %21, label %18

18:                                               ; preds = %15
  %19 = getelementptr inbounds nuw i8, ptr %4, i64 304
  %20 = load i64, ptr %19, align 8, !tbaa !171
  %.not6.i = icmp eq i64 %20, 0
  br i1 %.not6.i, label %21, label %ssl_conf_has_psk_or_cb.exit

21:                                               ; preds = %15, %18, %11, %7
  tail call void (ptr, i32, ptr, i32, ptr, ...) @mbedtls_debug_print_msg(ptr noundef nonnull %0, i32 noundef 1, ptr noundef nonnull @.str, i32 noundef 3617, ptr noundef nonnull @.str.162) #12
  br label %54

ssl_conf_has_psk_or_cb.exit:                      ; preds = %18, %3
  %22 = load ptr, ptr %1, align 8, !tbaa !88
  %23 = ptrtoint ptr %2 to i64
  %24 = ptrtoint ptr %22 to i64
  %25 = sub i64 %23, %24
  %26 = icmp slt i64 %25, 2
  br i1 %26, label %27, label %28

27:                                               ; preds = %ssl_conf_has_psk_or_cb.exit
  tail call void (ptr, i32, ptr, i32, ptr, ...) @mbedtls_debug_print_msg(ptr noundef nonnull %0, i32 noundef 1, ptr noundef nonnull @.str, i32 noundef 3625, ptr noundef nonnull @.str.148) #12
  br label %54

28:                                               ; preds = %ssl_conf_has_psk_or_cb.exit
  %.0.copyload.i = load i16, ptr %22, align 1
  %29 = getelementptr inbounds nuw i8, ptr %22, i64 2
  store ptr %29, ptr %1, align 8, !tbaa !88
  %30 = icmp eq i16 %.0.copyload.i, 0
  br i1 %30, label %37, label %31

31:                                               ; preds = %28
  %32 = tail call i16 @llvm.bswap.i16(i16 %.0.copyload.i)
  %33 = zext i16 %32 to i64
  %34 = ptrtoint ptr %29 to i64
  %35 = sub i64 %23, %34
  %36 = icmp slt i64 %35, %33
  br i1 %36, label %37, label %38

37:                                               ; preds = %31, %28
  tail call void (ptr, i32, ptr, i32, ptr, ...) @mbedtls_debug_print_msg(ptr noundef nonnull %0, i32 noundef 1, ptr noundef nonnull @.str, i32 noundef 3633, ptr noundef nonnull @.str.148) #12
  br label %54

38:                                               ; preds = %31
  br i1 %.not.i, label %43, label %39

39:                                               ; preds = %38
  %40 = getelementptr inbounds nuw i8, ptr %4, i64 136
  %41 = load ptr, ptr %40, align 8, !tbaa !182
  %42 = tail call i32 %6(ptr noundef %41, ptr noundef nonnull %0, ptr noundef nonnull %29, i64 noundef %33) #12
  %.not36.not = icmp eq i32 %42, 0
  br i1 %.not36.not, label %.critedge38, label %.critedge

43:                                               ; preds = %38
  %44 = getelementptr inbounds nuw i8, ptr %4, i64 320
  %45 = load i64, ptr %44, align 8, !tbaa !168
  %.not34 = icmp eq i64 %45, %33
  br i1 %.not34, label %46, label %.critedge

46:                                               ; preds = %43
  %47 = getelementptr inbounds nuw i8, ptr %4, i64 312
  %48 = load ptr, ptr %47, align 8, !tbaa !169
  %49 = tail call i32 @mbedtls_ct_memcmp(ptr noundef %48, ptr noundef nonnull %29, i64 noundef %33) #12
  %.not35 = icmp eq i32 %49, 0
  br i1 %.not35, label %.critedge38, label %.critedge

.critedge:                                        ; preds = %43, %46, %39
  %50 = load ptr, ptr %1, align 8, !tbaa !88
  tail call void @mbedtls_debug_print_buf(ptr noundef nonnull %0, i32 noundef 3, ptr noundef nonnull @.str, i32 noundef 3651, ptr noundef nonnull @.str.163, ptr noundef %50, i64 noundef %33) #12
  %51 = tail call i32 @mbedtls_ssl_send_alert_message(ptr noundef nonnull %0, i8 noundef zeroext 2, i8 noundef zeroext 115) #12
  br label %54

.critedge38:                                      ; preds = %46, %39
  %52 = load ptr, ptr %1, align 8, !tbaa !88
  %53 = getelementptr inbounds nuw i8, ptr %52, i64 %33
  store ptr %53, ptr %1, align 8, !tbaa !88
  br label %54

54:                                               ; preds = %.critedge38, %.critedge, %37, %27, %21
  %.0 = phi i32 [ -30208, %21 ], [ -29440, %27 ], [ -29440, %37 ], [ -27776, %.critedge ], [ 0, %.critedge38 ]
  ret i32 %.0
}